; Function Attrs: mustprogress nofree norecurse nosync nounwind null_pointer_is_valid sspstrong willreturn memory(read, inaccessiblemem: none) uwtable
define internal ptr @atm_value(ptr noundef readonly captures(none) %0) #3 {
  %2 = getelementptr inbounds nuw i8, ptr %0, i64 88
  %3 = load ptr, ptr %2, align 8
  %4 = getelementptr inbounds nuw i8, ptr %3, i64 5
  %5 = load i8, ptr %4, align 1
  %6 = zext i8 %5 to i64
  %7 = inttoptr i64 %6 to ptr
  ret ptr %7
}